; Function Attrs: mustprogress uwtable
define dso_local noundef zeroext i1 @_ZN9CGContext14check_read_varEPK8VariableRKSt6vectorIPK4FactSaIS6_EE(ptr noundef nonnull align 8 dereferenceable(216) %0, ptr noundef %1, ptr noundef nonnull align 8 dereferenceable(24) %2) local_unnamed_addr #4 align 2 {
  %4 = tail call noundef zeroext i1 @_ZN9CGContext12read_indicesEPK8VariableRKSt6vectorIPK4FactSaIS6_EE(ptr noundef nonnull align 8 dereferenceable(216) %0, ptr noundef %1, ptr noundef nonnull align 8 dereferenceable(24) %2)
  br i1 %4, label %5, label %_ZNK9CGContext14is_nonreadableEPK8Variable.exit

5:                                                ; preds = %3
  %6 = load ptr, ptr %1, align 8
  %7 = getelementptr inbounds nuw i8, ptr %6, i64 64
  %8 = load ptr, ptr %7, align 8
  %9 = tail call noundef ptr %8(ptr noundef nonnull align 8 dereferenceable(200) %1)
  %10 = tail call noundef zeroext i1 @_ZN9FactUnion20is_nonreadable_fieldEPK8VariableRKSt6vectorIPK4FactSaIS6_EE(ptr noundef %9, ptr noundef nonnull align 8 dereferenceable(24) %2)
  br i1 %10, label %_ZNK9CGContext14is_nonreadableEPK8Variable.exit, label %11

11:                                               ; preds = %5
  %12 = getelementptr inbounds nuw i8, ptr %0, i64 56
  %13 = load ptr, ptr %12, align 8
  %.not.i = icmp eq ptr %13, null
  br i1 %.not.i, label %.loopexit, label %14

14:                                               ; preds = %11
  %15 = load ptr, ptr %13, align 8
  %16 = getelementptr inbounds nuw i8, ptr %15, i64 8
  %17 = load ptr, ptr %16, align 8
  %18 = load ptr, ptr %15, align 8
  %.not11.i = icmp eq ptr %17, %18
  br i1 %.not11.i, label %.loopexit, label %.lr.ph.preheader.i

.lr.ph.preheader.i:                               ; preds = %14
  %19 = ptrtoint ptr %17 to i64
  %20 = ptrtoint ptr %18 to i64
  %21 = sub i64 %19, %20
  %22 = ashr exact i64 %21, 3
  %umax.i = tail call i64 @llvm.umax.i64(i64 %22, i64 1)
  br label %.lr.ph.i

23:                                               ; preds = %.lr.ph.i
  %24 = add nuw i64 %.08.i, 1
  %exitcond.not.i = icmp eq i64 %24, %umax.i
  br i1 %exitcond.not.i, label %.loopexit, label %.lr.ph.i, !llvm.loop !9

.lr.ph.i:                                         ; preds = %23, %.lr.ph.preheader.i
  %.08.i = phi i64 [ %24, %23 ], [ 0, %.lr.ph.preheader.i ]
  %25 = load ptr, ptr %12, align 8
  %26 = load ptr, ptr %25, align 8
  %27 = load ptr, ptr %26, align 8
  %28 = getelementptr inbounds ptr, ptr %27, i64 %.08.i
  %29 = load ptr, ptr %28, align 8
  %30 = tail call noundef zeroext i1 @_ZNK8Variable5matchEPKS_(ptr noundef nonnull align 8 dereferenceable(200) %29, ptr noundef %9)
  br i1 %30, label %_ZNK9CGContext14is_nonreadableEPK8Variable.exit, label %23

.loopexit:                                        ; preds = %23, %11, %14
  %31 = getelementptr inbounds nuw i8, ptr %0, i64 120
  %32 = load ptr, ptr %31, align 8
  %33 = tail call noundef zeroext i1 @_ZNK6Effect20is_written_partiallyEPK8Variable(ptr noundef nonnull align 8 dereferenceable(74) %32, ptr noundef %9)
  br i1 %33, label %_ZNK9CGContext14is_nonreadableEPK8Variable.exit, label %34

34:                                               ; preds = %.loopexit
  %35 = tail call noundef zeroext i1 @_ZNK8Variable11is_volatileEv(ptr noundef nonnull align 8 dereferenceable(200) %9)
  br i1 %35, label %36, label %41

36:                                               ; preds = %34
  %37 = load ptr, ptr %31, align 8
  %38 = getelementptr inbounds nuw i8, ptr %37, i64 73
  %39 = load i8, ptr %38, align 1
  %40 = trunc i8 %39 to i1
  br i1 %40, label %41, label %_ZNK9CGContext14is_nonreadableEPK8Variable.exit

41:                                               ; preds = %36, %34
  %42 = getelementptr inbounds nuw i8, ptr %9, i64 64
  %43 = load ptr, ptr %42, align 8
  %.not.i14 = icmp eq ptr %43, null
  br i1 %.not.i14, label %_ZNK8Variable10is_pointerEv.exit.thread, label %_ZNK8Variable10is_pointerEv.exit

_ZNK8Variable10is_pointerEv.exit:                 ; preds = %41
  %44 = load i32, ptr %43, align 8
  %45 = icmp eq i32 %44, 1
  br i1 %45, label %46, label %_ZNK8Variable10is_pointerEv.exit.thread

46:                                               ; preds = %_ZNK8Variable10is_pointerEv.exit
  %47 = tail call noundef zeroext i1 @_ZN11FactPointTo15is_dangling_ptrEPK8VariableRKSt6vectorIPK4FactSaIS6_EE(ptr noundef nonnull %9, ptr noundef nonnull align 8 dereferenceable(24) %2)
  br i1 %47, label %_ZNK9CGContext14is_nonreadableEPK8Variable.exit, label %_ZNK8Variable10is_pointerEv.exit.thread

_ZNK8Variable10is_pointerEv.exit.thread:          ; preds = %41, %46, %_ZNK8Variable10is_pointerEv.exit
  %48 = load ptr, ptr %9, align 8
  %49 = getelementptr inbounds nuw i8, ptr %48, i64 64
  %50 = load ptr, ptr %49, align 8
  %51 = tail call noundef ptr %50(ptr noundef nonnull align 8 dereferenceable(200) %9)
  %52 = load ptr, ptr %12, align 8
  %.not.i.i = icmp eq ptr %52, null
  br i1 %.not.i.i, label %_ZNK9CGContext14is_nonreadableEPK8Variable.exit.i, label %53

53:                                               ; preds = %_ZNK8Variable10is_pointerEv.exit.thread
  %54 = load ptr, ptr %52, align 8
  %55 = getelementptr inbounds nuw i8, ptr %54, i64 8
  %56 = load ptr, ptr %55, align 8
  %57 = load ptr, ptr %54, align 8
  %.not11.i.i = icmp eq ptr %56, %57
  br i1 %.not11.i.i, label %_ZNK9CGContext14is_nonreadableEPK8Variable.exit.i, label %.lr.ph.preheader.i.i

.lr.ph.preheader.i.i:                             ; preds = %53
  %58 = ptrtoint ptr %56 to i64
  %59 = ptrtoint ptr %57 to i64
  %60 = sub i64 %58, %59
  %61 = ashr exact i64 %60, 3
  %umax.i.i = tail call i64 @llvm.umax.i64(i64 %61, i64 1)
  br label %.lr.ph.i.i

.lr.ph.i.i:                                       ; preds = %.lr.ph.i.i, %.lr.ph.preheader.i.i
  %.08.i.i = phi i64 [ 0, %.lr.ph.preheader.i.i ], [ %68, %.lr.ph.i.i ]
  %62 = load ptr, ptr %12, align 8
  %63 = load ptr, ptr %62, align 8
  %64 = load ptr, ptr %63, align 8
  %65 = getelementptr inbounds ptr, ptr %64, i64 %.08.i.i
  %66 = load ptr, ptr %65, align 8
  %67 = tail call noundef zeroext i1 @_ZNK8Variable5matchEPKS_(ptr noundef nonnull align 8 dereferenceable(200) %66, ptr noundef %51)
  %68 = add nuw i64 %.08.i.i, 1
  %exitcond.not.i.i = icmp eq i64 %68, %umax.i.i
  %or.cond.i = select i1 %67, i1 true, i1 %exitcond.not.i.i
  br i1 %or.cond.i, label %_ZNK9CGContext14is_nonreadableEPK8Variable.exit.i, label %.lr.ph.i.i, !llvm.loop !9

_ZNK9CGContext14is_nonreadableEPK8Variable.exit.i: ; preds = %.lr.ph.i.i, %53, %_ZNK8Variable10is_pointerEv.exit.thread
  %69 = getelementptr inbounds nuw i8, ptr %0, i64 128
  %70 = load ptr, ptr %69, align 8
  %.not.i15 = icmp eq ptr %70, null
  br i1 %.not.i15, label %_ZN9CGContext8read_varEPK8Variable.exit, label %71

71:                                               ; preds = %_ZNK9CGContext14is_nonreadableEPK8Variable.exit.i
  tail call void @_ZN6Effect8read_varEPK8Variable(ptr noundef nonnull align 8 dereferenceable(74) %70, ptr noundef %51)
  br label %_ZN9CGContext8read_varEPK8Variable.exit

_ZN9CGContext8read_varEPK8Variable.exit:          ; preds = %_ZNK9CGContext14is_nonreadableEPK8Variable.exit.i, %71
  %72 = getelementptr inbounds nuw i8, ptr %0, i64 136
  tail call void @_ZN6Effect8read_varEPK8Variable(ptr noundef nonnull align 8 dereferenceable(74) %72, ptr noundef %51)
  br label %_ZNK9CGContext14is_nonreadableEPK8Variable.exit

_ZNK9CGContext14is_nonreadableEPK8Variable.exit:  ; preds = %.lr.ph.i, %46, %36, %.loopexit, %5, %3, %_ZN9CGContext8read_varEPK8Variable.exit
  %.0 = phi i1 [ true, %_ZN9CGContext8read_varEPK8Variable.exit ], [ false, %3 ], [ false, %5 ], [ false, %.loopexit ], [ false, %36 ], [ false, %46 ], [ false, %.lr.ph.i ]
  ret i1 %.0
}